; Function Attrs: mustprogress nofree norecurse nosync nounwind willreturn memory(read, argmem: readwrite, inaccessiblemem: none) uwtable
define dso_local void @_ZN20Sample_TempObstacles10getTilePosEPKfRiS2_(ptr nocapture noundef nonnull readonly align 8 dereferenceable(276) %0, ptr nocapture noundef readonly %1, ptr nocapture noundef nonnull writeonly align 4 dereferenceable(4) %2, ptr nocapture noundef nonnull writeonly align 4 dereferenceable(4) %3) local_unnamed_addr #11 align 2 {
  %5 = getelementptr inbounds i8, ptr %0, i64 8
  %6 = load ptr, ptr %5, align 8
  %.not = icmp eq ptr %6, null
  br i1 %.not, label %29, label %7

7:                                                ; preds = %4
  %8 = getelementptr inbounds i8, ptr %6, i64 124
  %9 = load i8, ptr %8, align 4
  %10 = and i8 %9, 1
  %.not.i = icmp eq i8 %10, 0
  %.v.i = select i1 %.not.i, i64 16, i64 96
  %11 = getelementptr inbounds i8, ptr %6, i64 %.v.i
  %12 = getelementptr inbounds i8, ptr %0, i64 272
  %13 = load float, ptr %12, align 8
  %14 = getelementptr inbounds i8, ptr %0, i64 44
  %15 = load float, ptr %14, align 4
  %16 = fmul float %13, %15
  %17 = load float, ptr %1, align 4
  %18 = load float, ptr %11, align 4
  %19 = fsub float %17, %18
  %20 = fdiv float %19, %16
  %21 = fptosi float %20 to i32
  store i32 %21, ptr %2, align 4
  %22 = getelementptr inbounds i8, ptr %1, i64 8
  %23 = load float, ptr %22, align 4
  %24 = getelementptr inbounds i8, ptr %11, i64 8
  %25 = load float, ptr %24, align 4
  %26 = fsub float %23, %25
  %27 = fdiv float %26, %16
  %28 = fptosi float %27 to i32
  store i32 %28, ptr %3, align 4
  br label %29

29:                                               ; preds = %4, %7
  ret void
}